Certificate:
    Data:
        Version: 3 (0x2)
        Serial Number: 1 (0x1)
        Signature Algorithm: md5WithRSAEncryption
        Issuer: C=RU, ST=Russia, L=Moscow, O=e-Vote CA, OU=Government, CN=e-Vote CA/emailAddress=e-vote@ca
        Validity
            Not Before: Sep 24 12:43:31 2011 GMT
            Not After : Sep 23 12:43:31 2012 GMT
        Subject: C=RU, ST=Russia, L=Moscow, O=Arbiter, OU=Government, CN=Arbiter/emailAddress=arbiter@org
        Subject Public Key Info:
            Public Key Algorithm: rsaEncryption
            RSA Public Key: (1024 bit)
                Modulus (1024 bit):
                    00:f5:4c:ca:12:d0:4f:1f:ea:e6:43:e4:a1:2d:c7:
                    6d:07:21:ac:9a:d0:cd:7e:e5:5d:6f:0b:dd:26:2c:
                    5c:5d:2f:a8:5b:e1:39:90:d6:ca:c7:cc:42:77:88:
                    5a:a0:df:ff:e3:e6:c6:a6:3e:d0:19:84:8a:19:a7:
                    e0:f5:cd:a7:ec:fa:d6:d1:a9:ac:2e:55:8a:41:26:
                    e9:85:57:f4:04:7a:97:25:f7:6e:29:3e:cc:45:f3:
                    f1:4e:16:c9:56:df:10:e1:d3:b6:00:6a:09:75:d0:
                    9d:91:14:5d:ed:df:e3:d4:dd:2c:87:fc:45:b5:24:
                    8c:85:f6:92:5b:1c:88:03:6d
                Exponent: 65537 (0x10001)
        X509v3 extensions:
            X509v3 Basic Constraints: 
                CA:FALSE
            Netscape Comment: 
                OpenSSL Generated Certificate
            X509v3 Subject Key Identifier: 
                E1:5F:E8:56:2F:06:C2:05:2A:BF:22:99:D2:77:C2:E6:E5:BF:AE:8D
            X509v3 Authority Key Identifier: 
                keyid:22:C8:E9:32:AD:71:BF:0F:D6:46:42:48:DD:C2:91:11:D2:2C:02:24
                DirName:/C=RU/ST=Russia/L=Moscow/O=e-Vote CA/OU=Government/CN=e-Vote CA/emailAddress=e-vote@ca
                serial:AD:E4:77:D7:4E:03:5E:35

    Signature Algorithm: md5WithRSAEncryption
        c6:ee:8d:05:a7:5d:7e:dd:ed:0e:cc:6f:5d:3c:bc:83:de:58:
        df:da:39:cb:b8:c7:af:5b:ef:1d:10:20:92:52:24:f8:b1:62:
        02:6b:73:1d:4b:3d:8b:0e:59:b2:5c:d6:2d:68:5a:11:e4:c4:
        4e:55:cc:b2:0f:75:76:f8:61:75:40:31:68:79:eb:3f:e4:e7:
        74:3a:58:f2:53:b6:ee:c0:27:c7:88:64:ca:82:39:11:51:ab:
        c9:a5:e8:1c:0b:7a:ca:e9:96:e5:56:69:05:e7:c8:fb:80:30:
        65:ca:ab:a6:f7:df:08:a2:a6:21:ec:af:81:5d:90:b9:76:18:
        79:0f
-----BEGIN CERTIFICATE-----
MIIDnjCCAwegAwIBAgIBATANBgkqhkiG9w0BAQQFADCBhjELMAkGA1UEBhMCUlUx
DzANBgNVBAgTBlJ1c3NpYTEPMA0GA1UEBxMGTW9zY293MRIwEAYDVQQKEwllLVZv
dGUgQ0ExEzARBgNVBAsTCkdvdmVybm1lbnQxEjAQBgNVBAMTCWUtVm90ZSBDQTEY
MBYGCSqGSIb3DQEJARYJZS12b3RlQGNhMB4XDTExMDkyNDEyNDMzMVoXDTEyMDky
MzEyNDMzMVowgYQxCzAJBgNVBAYTAlJVMQ8wDQYDVQQIEwZSdXNzaWExDzANBgNV
BAcTBk1vc2NvdzEQMA4GA1UEChMHQXJiaXRlcjETMBEGA1UECxMKR292ZXJubWVu
dDEQMA4GA1UEAxMHQXJiaXRlcjEaMBgGCSqGSIb3DQEJARYLYXJiaXRlckBvcmcw
gZ8wDQYJKoZIhvcNAQEBBQADgY0AMIGJAoGBAPVMyhLQTx/q5kPkoS3HbQchrJrQ
zX7lXW8L3SYsXF0vqFvhOZDWysfMQneIWqDf/+PmxqY+0BmEihmn4PXNp+z61tGp
rC5VikEm6YVX9AR6lyX3bik+zEXz8U4WyVbfEOHTtgBqCXXQnZEUXe3f49TdLIf8
RbUkjIX2klsciANtAgMBAAGjggEaMIIBFjAJBgNVHRMEAjAAMCwGCWCGSAGG+EIB
DQQfFh1PcGVuU1NMIEdlbmVyYXRlZCBDZXJ0aWZpY2F0ZTAdBgNVHQ4EFgQU4V/o
Vi8GwgUqvyKZ0nfC5uW/ro0wgbsGA1UdIwSBszCBsIAUIsjpMq1xvw/WRkJI3cKR
EdIsAiShgYykgYkwgYYxCzAJBgNVBAYTAlJVMQ8wDQYDVQQIEwZSdXNzaWExDzAN
BgNVBAcTBk1vc2NvdzESMBAGA1UEChMJZS1Wb3RlIENBMRMwEQYDVQQLEwpHb3Zl
cm5tZW50MRIwEAYDVQQDEwllLVZvdGUgQ0ExGDAWBgkqhkiG9w0BCQEWCWUtdm90
ZUBjYYIJAK3kd9dOA141MA0GCSqGSIb3DQEBBAUAA4GBAMbujQWnXX7d7Q7Mb108
vIPeWN/aOcu4x69b7x0QIJJSJPixYgJrcx1LPYsOWbJc1i1oWhHkxE5VzLIPdXb4
YXVAMWh56z/k53Q6WPJTtu7AJ8eIZMqCORFRq8ml6BwLesrpluVWaQXnyPuAMGXK
q6b33wiipiHsr4FdkLl2GHkP
-----END CERTIFICATE-----
