Certificate:
    Data:
        Version: 3 (0x2)
        Serial Number: 2 (0x2)
        Signature Algorithm: md5WithRSAEncryption
        Issuer: C=RU, ST=Russia, L=Moscow, O=e-Vote CA, OU=Government, CN=e-Vote CA/emailAddress=e-vote@ca
        Validity
            Not Before: Sep 24 12:57:06 2011 GMT
            Not After : Sep 23 12:57:06 2012 GMT
        Subject: C=RU, ST=Russia, L=Moscow, O=Part1, OU=Government, CN=Part1/emailAddress=part1@gov
        Subject Public Key Info:
            Public Key Algorithm: rsaEncryption
            RSA Public Key: (1024 bit)
                Modulus (1024 bit):
                    00:c5:67:07:a0:4a:5d:d4:b2:37:16:e8:3b:33:b5:
                    e1:06:54:a4:4a:92:8e:36:b7:1f:39:2f:cf:fa:d5:
                    00:3a:7b:9f:d3:93:71:c1:f6:97:d4:91:09:b7:af:
                    f8:63:c5:72:4f:e2:d3:9d:5b:ef:5f:55:11:ab:15:
                    07:a4:68:98:e0:97:6f:ee:ce:b6:19:ab:2f:6e:00:
                    e0:e5:67:5c:f8:59:32:1c:0e:b1:15:46:f4:6d:37:
                    29:4a:31:66:fa:d1:ed:75:bc:bb:dd:ac:0f:c4:63:
                    ba:45:cf:a3:5f:48:1e:92:3d:f1:a0:97:b7:c1:0e:
                    c7:dc:7f:86:5b:be:fd:0d:b3
                Exponent: 65537 (0x10001)
        X509v3 extensions:
            X509v3 Basic Constraints: 
                CA:FALSE
            Netscape Comment: 
                OpenSSL Generated Certificate
            X509v3 Subject Key Identifier: 
                4F:DC:35:59:8A:3D:80:72:3A:74:44:63:06:1D:2C:E6:76:F4:05:34
            X509v3 Authority Key Identifier: 
                keyid:22:C8:E9:32:AD:71:BF:0F:D6:46:42:48:DD:C2:91:11:D2:2C:02:24
                DirName:/C=RU/ST=Russia/L=Moscow/O=e-Vote CA/OU=Government/CN=e-Vote CA/emailAddress=e-vote@ca
                serial:AD:E4:77:D7:4E:03:5E:35

    Signature Algorithm: md5WithRSAEncryption
        71:e9:d9:04:80:38:c8:f2:ef:22:09:80:18:e8:a9:36:db:97:
        b2:84:16:7e:1e:7d:18:cc:6f:6c:b4:a3:96:35:c5:a9:43:79:
        0e:96:7d:58:a0:e0:81:f6:a0:a3:98:88:05:47:fa:3a:da:81:
        cd:4f:a5:19:b5:5c:14:b7:83:91:5d:28:75:5b:76:e6:24:9a:
        25:80:9d:ce:57:31:78:fa:23:ba:23:75:71:5d:57:1b:89:e5:
        9e:8a:07:ef:42:5d:d5:b7:da:11:17:c9:f2:14:80:68:f6:cb:
        75:47:de:a2:75:89:61:09:76:47:aa:34:d3:ed:f5:f8:8f:d2:
        db:88
-----BEGIN CERTIFICATE-----
MIIDlzCCAwCgAwIBAgIBAjANBgkqhkiG9w0BAQQFADCBhjELMAkGA1UEBhMCUlUx
DzANBgNVBAgTBlJ1c3NpYTEPMA0GA1UEBxMGTW9zY293MRIwEAYDVQQKEwllLVZv
dGUgQ0ExEzARBgNVBAsTCkdvdmVybm1lbnQxEjAQBgNVBAMTCWUtVm90ZSBDQTEY
MBYGCSqGSIb3DQEJARYJZS12b3RlQGNhMB4XDTExMDkyNDEyNTcwNloXDTEyMDky
MzEyNTcwNlowfjELMAkGA1UEBhMCUlUxDzANBgNVBAgTBlJ1c3NpYTEPMA0GA1UE
BxMGTW9zY293MQ4wDAYDVQQKEwVQYXJ0MTETMBEGA1UECxMKR292ZXJubWVudDEO
MAwGA1UEAxMFUGFydDExGDAWBgkqhkiG9w0BCQEWCXBhcnQxQGdvdjCBnzANBgkq
hkiG9w0BAQEFAAOBjQAwgYkCgYEAxWcHoEpd1LI3Fug7M7XhBlSkSpKONrcfOS/P
+tUAOnuf05NxwfaX1JEJt6/4Y8VyT+LTnVvvX1URqxUHpGiY4Jdv7s62GasvbgDg
5Wdc+FkyHA6xFUb0bTcpSjFm+tHtdby73awPxGO6Rc+jX0gekj3xoJe3wQ7H3H+G
W779DbMCAwEAAaOCARowggEWMAkGA1UdEwQCMAAwLAYJYIZIAYb4QgENBB8WHU9w
ZW5TU0wgR2VuZXJhdGVkIENlcnRpZmljYXRlMB0GA1UdDgQWBBRP3DVZij2Acjp0
RGMGHSzmdvQFNDCBuwYDVR0jBIGzMIGwgBQiyOkyrXG/D9ZGQkjdwpER0iwCJKGB
jKSBiTCBhjELMAkGA1UEBhMCUlUxDzANBgNVBAgTBlJ1c3NpYTEPMA0GA1UEBxMG
TW9zY293MRIwEAYDVQQKEwllLVZvdGUgQ0ExEzARBgNVBAsTCkdvdmVybm1lbnQx
EjAQBgNVBAMTCWUtVm90ZSBDQTEYMBYGCSqGSIb3DQEJARYJZS12b3RlQGNhggkA
reR3104DXjUwDQYJKoZIhvcNAQEEBQADgYEAcenZBIA4yPLvIgmAGOipNtuXsoQW
fh59GMxvbLSjljXFqUN5DpZ9WKDggfago5iIBUf6OtqBzU+lGbVcFLeDkV0odVt2
5iSaJYCdzlcxePojuiN1cV1XG4nlnooH70Jd1bfaERfJ8hSAaPbLdUfeonWJYQl2
R6o00+31+I/S24g=
-----END CERTIFICATE-----
