Certificate:
    Data:
        Version: 3 (0x2)
        Serial Number: 4 (0x4)
        Signature Algorithm: md5WithRSAEncryption
        Issuer: C=RU, ST=Russia, L=Moscow, O=e-Vote CA, OU=Government, CN=e-Vote CA/emailAddress=e-vote@ca
        Validity
            Not Before: Sep 24 12:58:00 2011 GMT
            Not After : Sep 23 12:58:00 2012 GMT
        Subject: C=RU, ST=Russia, L=Moscow, O=Part3, OU=Government, CN=Part3/emailAddress=part3@gov
        Subject Public Key Info:
            Public Key Algorithm: rsaEncryption
            RSA Public Key: (1024 bit)
                Modulus (1024 bit):
                    00:a1:52:82:96:0a:93:d2:4d:26:91:67:de:d0:4c:
                    9b:f3:3b:a2:3b:85:29:32:08:23:64:70:4a:b5:51:
                    e9:34:d1:cb:bb:7a:43:46:c0:be:82:89:ad:d0:ac:
                    c7:49:8b:36:05:fe:23:ac:b9:b2:40:70:20:11:14:
                    ec:bb:e5:a9:81:dd:bd:b4:ff:b2:c7:4e:4f:95:cf:
                    8a:17:5a:be:0d:c1:ef:2d:1d:f3:8a:00:b2:34:0d:
                    10:67:17:81:3d:78:a6:12:6a:dd:d9:c2:65:10:62:
                    df:fe:d7:0c:c6:03:d6:00:58:f9:9c:0b:4d:dd:1b:
                    fc:42:e0:5b:c2:4a:30:98:cb
                Exponent: 65537 (0x10001)
        X509v3 extensions:
            X509v3 Basic Constraints: 
                CA:FALSE
            Netscape Comment: 
                OpenSSL Generated Certificate
            X509v3 Subject Key Identifier: 
                7E:4D:13:75:6B:B1:87:36:B2:C7:B6:50:99:3E:78:58:CD:E0:33:15
            X509v3 Authority Key Identifier: 
                keyid:22:C8:E9:32:AD:71:BF:0F:D6:46:42:48:DD:C2:91:11:D2:2C:02:24
                DirName:/C=RU/ST=Russia/L=Moscow/O=e-Vote CA/OU=Government/CN=e-Vote CA/emailAddress=e-vote@ca
                serial:AD:E4:77:D7:4E:03:5E:35

    Signature Algorithm: md5WithRSAEncryption
        32:2c:41:16:12:44:e1:45:6f:52:fb:c7:94:3d:91:1f:ba:a1:
        e4:29:72:8a:57:91:90:03:00:b9:f7:f1:52:8e:65:43:ee:04:
        9f:78:bf:81:a5:67:5e:81:2b:6f:31:8d:36:cf:8f:ef:ee:e8:
        16:57:09:50:6b:b7:8d:6d:0e:95:00:eb:d5:78:0a:b5:0a:74:
        7e:4c:3f:15:47:29:1d:39:1e:23:88:09:47:a6:43:10:01:ba:
        7d:cd:ee:6e:8a:7b:0a:34:dc:c5:b2:1a:79:1b:9e:9e:de:5b:
        5c:be:f1:58:d5:90:bd:ce:90:7f:9b:7b:90:3b:8c:de:a9:8f:
        ad:08
-----BEGIN CERTIFICATE-----
MIIDlzCCAwCgAwIBAgIBBDANBgkqhkiG9w0BAQQFADCBhjELMAkGA1UEBhMCUlUx
DzANBgNVBAgTBlJ1c3NpYTEPMA0GA1UEBxMGTW9zY293MRIwEAYDVQQKEwllLVZv
dGUgQ0ExEzARBgNVBAsTCkdvdmVybm1lbnQxEjAQBgNVBAMTCWUtVm90ZSBDQTEY
MBYGCSqGSIb3DQEJARYJZS12b3RlQGNhMB4XDTExMDkyNDEyNTgwMFoXDTEyMDky
MzEyNTgwMFowfjELMAkGA1UEBhMCUlUxDzANBgNVBAgTBlJ1c3NpYTEPMA0GA1UE
BxMGTW9zY293MQ4wDAYDVQQKEwVQYXJ0MzETMBEGA1UECxMKR292ZXJubWVudDEO
MAwGA1UEAxMFUGFydDMxGDAWBgkqhkiG9w0BCQEWCXBhcnQzQGdvdjCBnzANBgkq
hkiG9w0BAQEFAAOBjQAwgYkCgYEAoVKClgqT0k0mkWfe0Eyb8zuiO4UpMggjZHBK
tVHpNNHLu3pDRsC+gomt0KzHSYs2Bf4jrLmyQHAgERTsu+Wpgd29tP+yx05Plc+K
F1q+DcHvLR3zigCyNA0QZxeBPXimEmrd2cJlEGLf/tcMxgPWAFj5nAtN3Rv8QuBb
wkowmMsCAwEAAaOCARowggEWMAkGA1UdEwQCMAAwLAYJYIZIAYb4QgENBB8WHU9w
ZW5TU0wgR2VuZXJhdGVkIENlcnRpZmljYXRlMB0GA1UdDgQWBBR+TRN1a7GHNrLH
tlCZPnhYzeAzFTCBuwYDVR0jBIGzMIGwgBQiyOkyrXG/D9ZGQkjdwpER0iwCJKGB
jKSBiTCBhjELMAkGA1UEBhMCUlUxDzANBgNVBAgTBlJ1c3NpYTEPMA0GA1UEBxMG
TW9zY293MRIwEAYDVQQKEwllLVZvdGUgQ0ExEzARBgNVBAsTCkdvdmVybm1lbnQx
EjAQBgNVBAMTCWUtVm90ZSBDQTEYMBYGCSqGSIb3DQEJARYJZS12b3RlQGNhggkA
reR3104DXjUwDQYJKoZIhvcNAQEEBQADgYEAMixBFhJE4UVvUvvHlD2RH7qh5Cly
ileRkAMAuffxUo5lQ+4En3i/gaVnXoErbzGNNs+P7+7oFlcJUGu3jW0OlQDr1XgK
tQp0fkw/FUcpHTkeI4gJR6ZDEAG6fc3ubop7CjTcxbIaeRuent5bXL7xWNWQvc6Q
f5t7kDuM3qmPrQg=
-----END CERTIFICATE-----
