Certificate:
    Data:
        Version: 3 (0x2)
        Serial Number: 3 (0x3)
        Signature Algorithm: md5WithRSAEncryption
        Issuer: C=RU, ST=Russia, L=Moscow, O=e-Vote CA, OU=Government, CN=e-Vote CA/emailAddress=e-vote@ca
        Validity
            Not Before: Sep 24 12:57:34 2011 GMT
            Not After : Sep 23 12:57:34 2012 GMT
        Subject: C=RU, ST=Russia, L=Moscow, O=Part2, OU=Government, CN=Part2/emailAddress=part2@gov
        Subject Public Key Info:
            Public Key Algorithm: rsaEncryption
            RSA Public Key: (1024 bit)
                Modulus (1024 bit):
                    00:cd:c4:d7:63:62:13:26:df:da:aa:eb:f9:44:5f:
                    ba:d1:8d:17:27:10:3a:41:1b:31:c2:6f:fa:03:9a:
                    9c:4e:6c:60:c8:45:45:9a:25:a7:c3:f7:de:ab:c6:
                    64:73:d5:eb:1e:d1:73:1d:d9:7d:23:58:cf:07:34:
                    a2:da:8a:e4:ce:a3:c8:1a:9c:fa:98:73:a0:ca:ea:
                    c2:03:06:4e:a9:a5:6b:d9:b8:fe:09:fb:b3:3c:fb:
                    ee:77:bb:fc:cc:18:4f:eb:65:9b:fd:b5:97:1b:68:
                    0e:a5:31:5f:67:e8:7d:f1:b0:e0:90:57:ce:56:5a:
                    55:ba:c8:a5:76:22:81:04:a5
                Exponent: 65537 (0x10001)
        X509v3 extensions:
            X509v3 Basic Constraints: 
                CA:FALSE
            Netscape Comment: 
                OpenSSL Generated Certificate
            X509v3 Subject Key Identifier: 
                A8:A1:FC:2F:FF:CE:F6:D2:F9:F1:FA:29:B3:18:E2:5C:27:7A:C6:7F
            X509v3 Authority Key Identifier: 
                keyid:22:C8:E9:32:AD:71:BF:0F:D6:46:42:48:DD:C2:91:11:D2:2C:02:24
                DirName:/C=RU/ST=Russia/L=Moscow/O=e-Vote CA/OU=Government/CN=e-Vote CA/emailAddress=e-vote@ca
                serial:AD:E4:77:D7:4E:03:5E:35

    Signature Algorithm: md5WithRSAEncryption
        0d:88:21:da:08:71:99:34:bd:25:36:fb:c8:78:d2:b1:9a:56:
        84:44:f1:6f:0a:45:7c:34:a0:89:d2:2f:28:81:25:de:23:1f:
        30:dc:00:75:d8:63:50:23:7e:d3:03:68:4c:9b:a2:19:67:2e:
        4a:d6:83:d0:12:85:b4:3f:1a:ca:81:e7:35:4c:ef:ba:a1:be:
        34:b5:1d:29:ed:10:94:d8:8b:d9:ed:50:98:6d:67:66:09:9b:
        1b:d3:18:9e:cb:73:3b:16:ab:2e:71:34:1f:92:04:d6:7b:f6:
        aa:c4:b6:02:37:9f:10:3f:e0:48:f9:b0:0f:be:77:17:2a:bf:
        9a:75
-----BEGIN CERTIFICATE-----
MIIDlzCCAwCgAwIBAgIBAzANBgkqhkiG9w0BAQQFADCBhjELMAkGA1UEBhMCUlUx
DzANBgNVBAgTBlJ1c3NpYTEPMA0GA1UEBxMGTW9zY293MRIwEAYDVQQKEwllLVZv
dGUgQ0ExEzARBgNVBAsTCkdvdmVybm1lbnQxEjAQBgNVBAMTCWUtVm90ZSBDQTEY
MBYGCSqGSIb3DQEJARYJZS12b3RlQGNhMB4XDTExMDkyNDEyNTczNFoXDTEyMDky
MzEyNTczNFowfjELMAkGA1UEBhMCUlUxDzANBgNVBAgTBlJ1c3NpYTEPMA0GA1UE
BxMGTW9zY293MQ4wDAYDVQQKEwVQYXJ0MjETMBEGA1UECxMKR292ZXJubWVudDEO
MAwGA1UEAxMFUGFydDIxGDAWBgkqhkiG9w0BCQEWCXBhcnQyQGdvdjCBnzANBgkq
hkiG9w0BAQEFAAOBjQAwgYkCgYEAzcTXY2ITJt/aquv5RF+60Y0XJxA6QRsxwm/6
A5qcTmxgyEVFmiWnw/feq8Zkc9XrHtFzHdl9I1jPBzSi2orkzqPIGpz6mHOgyurC
AwZOqaVr2bj+CfuzPPvud7v8zBhP62Wb/bWXG2gOpTFfZ+h98bDgkFfOVlpVusil
diKBBKUCAwEAAaOCARowggEWMAkGA1UdEwQCMAAwLAYJYIZIAYb4QgENBB8WHU9w
ZW5TU0wgR2VuZXJhdGVkIENlcnRpZmljYXRlMB0GA1UdDgQWBBSoofwv/8720vnx
+imzGOJcJ3rGfzCBuwYDVR0jBIGzMIGwgBQiyOkyrXG/D9ZGQkjdwpER0iwCJKGB
jKSBiTCBhjELMAkGA1UEBhMCUlUxDzANBgNVBAgTBlJ1c3NpYTEPMA0GA1UEBxMG
TW9zY293MRIwEAYDVQQKEwllLVZvdGUgQ0ExEzARBgNVBAsTCkdvdmVybm1lbnQx
EjAQBgNVBAMTCWUtVm90ZSBDQTEYMBYGCSqGSIb3DQEJARYJZS12b3RlQGNhggkA
reR3104DXjUwDQYJKoZIhvcNAQEEBQADgYEADYgh2ghxmTS9JTb7yHjSsZpWhETx
bwpFfDSgidIvKIEl3iMfMNwAddhjUCN+0wNoTJuiGWcuStaD0BKFtD8ayoHnNUzv
uqG+NLUdKe0QlNiL2e1QmG1nZgmbG9MYnstzOxarLnE0H5IE1nv2qsS2AjefED/g
SPmwD753Fyq/mnU=
-----END CERTIFICATE-----
