Certificate:
    Data:
        Version: 3 (0x2)
        Serial Number: 5 (0x5)
        Signature Algorithm: md5WithRSAEncryption
        Issuer: C=RU, ST=Russia, L=Moscow, O=e-Vote CA, OU=Government, CN=e-Vote CA/emailAddress=e-vote@ca
        Validity
            Not Before: Sep 24 12:58:17 2011 GMT
            Not After : Sep 23 12:58:17 2012 GMT
        Subject: C=RU, ST=Russia, L=Moscow, O=Part4, OU=Government, CN=Part4/emailAddress=part4@gov
        Subject Public Key Info:
            Public Key Algorithm: rsaEncryption
            RSA Public Key: (1024 bit)
                Modulus (1024 bit):
                    00:ce:55:f3:51:76:7c:be:ed:c8:70:54:b1:a3:36:
                    2a:a2:67:4e:e4:e1:3a:7d:8f:79:63:d8:a6:9d:19:
                    a7:5f:06:41:c1:6d:a2:6f:8c:4f:11:d3:24:be:51:
                    8e:38:2c:8d:f4:e3:2d:20:be:ae:71:35:e1:13:64:
                    b5:72:1b:48:26:fd:86:8b:80:08:90:94:16:30:09:
                    cd:0c:fd:50:eb:5c:26:14:ca:63:19:f0:26:c5:44:
                    b9:92:82:ad:1a:08:a8:06:fa:45:a2:e6:39:7f:4c:
                    a6:1a:1f:92:7e:f5:bb:ca:4c:37:73:22:1e:0e:38:
                    ce:d5:3c:c8:86:56:a7:a0:df
                Exponent: 65537 (0x10001)
        X509v3 extensions:
            X509v3 Basic Constraints: 
                CA:FALSE
            Netscape Comment: 
                OpenSSL Generated Certificate
            X509v3 Subject Key Identifier: 
                2E:2D:5A:80:48:03:BC:A7:7C:86:A3:F7:F3:3D:2B:47:E9:BA:97:04
            X509v3 Authority Key Identifier: 
                keyid:22:C8:E9:32:AD:71:BF:0F:D6:46:42:48:DD:C2:91:11:D2:2C:02:24
                DirName:/C=RU/ST=Russia/L=Moscow/O=e-Vote CA/OU=Government/CN=e-Vote CA/emailAddress=e-vote@ca
                serial:AD:E4:77:D7:4E:03:5E:35

    Signature Algorithm: md5WithRSAEncryption
        b6:37:b5:2c:da:a6:b2:d1:f0:c9:bf:17:c0:c1:e6:fe:7d:b5:
        69:d7:55:5a:72:33:f0:bb:71:1d:9a:de:36:f3:1c:1f:e8:1c:
        6a:6d:d5:bd:fa:ea:ae:5f:bc:e1:cc:1e:e8:53:d3:f3:1f:e3:
        bb:f3:e4:c8:81:0f:d6:bd:c6:9a:8d:e3:6b:8a:7b:bc:66:9c:
        51:45:55:54:a2:d8:dd:43:84:4e:5b:d8:17:8c:1a:26:99:9a:
        0e:ed:0a:fa:aa:57:1d:8a:76:2a:51:60:12:ac:7b:7b:41:60:
        41:85:6b:19:38:7d:9d:24:1f:4f:71:42:8e:a4:11:2b:68:e1:
        9b:cc
-----BEGIN CERTIFICATE-----
MIIDlzCCAwCgAwIBAgIBBTANBgkqhkiG9w0BAQQFADCBhjELMAkGA1UEBhMCUlUx
DzANBgNVBAgTBlJ1c3NpYTEPMA0GA1UEBxMGTW9zY293MRIwEAYDVQQKEwllLVZv
dGUgQ0ExEzARBgNVBAsTCkdvdmVybm1lbnQxEjAQBgNVBAMTCWUtVm90ZSBDQTEY
MBYGCSqGSIb3DQEJARYJZS12b3RlQGNhMB4XDTExMDkyNDEyNTgxN1oXDTEyMDky
MzEyNTgxN1owfjELMAkGA1UEBhMCUlUxDzANBgNVBAgTBlJ1c3NpYTEPMA0GA1UE
BxMGTW9zY293MQ4wDAYDVQQKEwVQYXJ0NDETMBEGA1UECxMKR292ZXJubWVudDEO
MAwGA1UEAxMFUGFydDQxGDAWBgkqhkiG9w0BCQEWCXBhcnQ0QGdvdjCBnzANBgkq
hkiG9w0BAQEFAAOBjQAwgYkCgYEAzlXzUXZ8vu3IcFSxozYqomdO5OE6fY95Y9im
nRmnXwZBwW2ib4xPEdMkvlGOOCyN9OMtIL6ucTXhE2S1chtIJv2Gi4AIkJQWMAnN
DP1Q61wmFMpjGfAmxUS5koKtGgioBvpFouY5f0ymGh+SfvW7ykw3cyIeDjjO1TzI
hlanoN8CAwEAAaOCARowggEWMAkGA1UdEwQCMAAwLAYJYIZIAYb4QgENBB8WHU9w
ZW5TU0wgR2VuZXJhdGVkIENlcnRpZmljYXRlMB0GA1UdDgQWBBQuLVqASAO8p3yG
o/fzPStH6bqXBDCBuwYDVR0jBIGzMIGwgBQiyOkyrXG/D9ZGQkjdwpER0iwCJKGB
jKSBiTCBhjELMAkGA1UEBhMCUlUxDzANBgNVBAgTBlJ1c3NpYTEPMA0GA1UEBxMG
TW9zY293MRIwEAYDVQQKEwllLVZvdGUgQ0ExEzARBgNVBAsTCkdvdmVybm1lbnQx
EjAQBgNVBAMTCWUtVm90ZSBDQTEYMBYGCSqGSIb3DQEJARYJZS12b3RlQGNhggkA
reR3104DXjUwDQYJKoZIhvcNAQEEBQADgYEAtje1LNqmstHwyb8XwMHm/n21addV
WnIz8LtxHZreNvMcH+gcam3Vvfrqrl+84cwe6FPT8x/ju/PkyIEP1r3Gmo3ja4p7
vGacUUVVVKLY3UOETlvYF4waJpmaDu0K+qpXHYp2KlFgEqx7e0FgQYVrGTh9nSQf
T3FCjqQRK2jhm8w=
-----END CERTIFICATE-----
